target datalayout = "e-m:e-p270:32:32-p271:32:32-p272:64:64-i64:64-i128:128-f80:128-n8:16:32:64-S128"
target triple = "x86_64-pc-linux-gnu"

%struct.FilterStateData = type { ptr, ptr, ptr, i32, %struct.StringInfoData }
%struct.StringInfoData = type { ptr, i32, i32, i32 }
%struct.__va_list_tag = type { i32, i32, ptr, ptr }

@stdin = external global ptr, align 8
@.str.16 = private unnamed_addr constant [65 x i8] c"invalid format in filter read from standard input on line %d: %s\00", align 1
@.str.17 = private unnamed_addr constant [60 x i8] c"invalid format in filter read from file \22%s\22 on line %d: %s\00", align 1

; Function Attrs: nounwind uwtable
define dso_local void @pg_log_filter_error(ptr noundef %0, ptr noundef %1, ...) #0 {
  %3 = alloca ptr, align 8
  %4 = alloca ptr, align 8
  %5 = alloca [1 x %struct.__va_list_tag], align 16
  %6 = alloca [256 x i8], align 16
  store ptr %0, ptr %3, align 8
  store ptr %1, ptr %4, align 8
  call void @llvm.lifetime.start.p0(i64 24, ptr %5) #8
  call void @llvm.lifetime.start.p0(i64 256, ptr %6) #8
  %7 = getelementptr inbounds [1 x %struct.__va_list_tag], ptr %5, i64 0, i64 0
  call void @llvm.va_start.p0(ptr %7)
  %8 = getelementptr inbounds [256 x i8], ptr %6, i64 0, i64 0
  %9 = load ptr, ptr %4, align 8
  %10 = getelementptr inbounds [1 x %struct.__va_list_tag], ptr %5, i64 0, i64 0
  %11 = call i32 @pg_vsnprintf(ptr noundef %8, i64 noundef 256, ptr noundef %9, ptr noundef %10)
  %12 = getelementptr inbounds [1 x %struct.__va_list_tag], ptr %5, i64 0, i64 0
  call void @llvm.va_end.p0(ptr %12)
  %13 = load ptr, ptr %3, align 8
  %14 = getelementptr inbounds nuw %struct.FilterStateData, ptr %13, i32 0, i32 0
  %15 = load ptr, ptr %14, align 8
  %16 = load ptr, ptr @stdin, align 8
  %17 = icmp eq ptr %15, %16
  br i1 %17, label %18, label %23

18:                                               ; preds = %2
  %19 = load ptr, ptr %3, align 8
  %20 = getelementptr inbounds nuw %struct.FilterStateData, ptr %19, i32 0, i32 3
  %21 = load i32, ptr %20, align 8
  %22 = getelementptr inbounds [256 x i8], ptr %6, i64 0, i64 0
  call void (i32, i32, ptr, ...) @pg_log_generic(i32 noundef 4, i32 noundef 0, ptr noundef @.str.16, i32 noundef %21, ptr noundef %22)
  br label %31

23:                                               ; preds = %2
  %24 = load ptr, ptr %3, align 8
  %25 = getelementptr inbounds nuw %struct.FilterStateData, ptr %24, i32 0, i32 1
  %26 = load ptr, ptr %25, align 8
  %27 = load ptr, ptr %3, align 8
  %28 = getelementptr inbounds nuw %struct.FilterStateData, ptr %27, i32 0, i32 3
  %29 = load i32, ptr %28, align 8
  %30 = getelementptr inbounds [256 x i8], ptr %6, i64 0, i64 0
  call void (i32, i32, ptr, ...) @pg_log_generic(i32 noundef 4, i32 noundef 0, ptr noundef @.str.17, ptr noundef %26, i32 noundef %29, ptr noundef %30)
  br label %31

31:                                               ; preds = %23, %18
  call void @llvm.lifetime.end.p0(i64 256, ptr %6) #8
  call void @llvm.lifetime.end.p0(i64 24, ptr %5) #8
  ret void
}