; Function Attrs: nounwind uwtable
define dso_local void @pg_log_filter_error(ptr noundef readonly captures(none) %0, ptr noundef %1, ...) local_unnamed_addr #0 {
  %3 = alloca [1 x %struct.__va_list_tag], align 16
  %4 = alloca [256 x i8], align 16
  call void @llvm.lifetime.start.p0(i64 24, ptr nonnull %3) #9
  call void @llvm.lifetime.start.p0(i64 256, ptr nonnull %4) #9
  call void @llvm.va_start.p0(ptr nonnull %3)
  %5 = call i32 @pg_vsnprintf(ptr noundef nonnull %4, i64 noundef 256, ptr noundef %1, ptr noundef nonnull %3) #9
  call void @llvm.va_end.p0(ptr nonnull %3)
  %6 = load ptr, ptr %0, align 8
  %7 = load ptr, ptr @stdin, align 8
  %8 = icmp eq ptr %6, %7
  br i1 %8, label %9, label %12

9:                                                ; preds = %2
  %10 = getelementptr inbounds nuw i8, ptr %0, i64 24
  %11 = load i32, ptr %10, align 8
  call void (i32, i32, ptr, ...) @pg_log_generic(i32 noundef 4, i32 noundef 0, ptr noundef nonnull @.str.16, i32 noundef %11, ptr noundef nonnull %4) #9
  br label %17

12:                                               ; preds = %2
  %13 = getelementptr inbounds nuw i8, ptr %0, i64 8
  %14 = load ptr, ptr %13, align 8
  %15 = getelementptr inbounds nuw i8, ptr %0, i64 24
  %16 = load i32, ptr %15, align 8
  call void (i32, i32, ptr, ...) @pg_log_generic(i32 noundef 4, i32 noundef 0, ptr noundef nonnull @.str.17, ptr noundef %14, i32 noundef %16, ptr noundef nonnull %4) #9
  br label %17

17:                                               ; preds = %12, %9
  call void @llvm.lifetime.end.p0(i64 256, ptr nonnull %4) #9
  call void @llvm.lifetime.end.p0(i64 24, ptr nonnull %3) #9
  ret void
}